target datalayout = "e-m:e-p270:32:32-p271:32:32-p272:64:64-i64:64-i128:128-f80:128-n8:16:32:64-S128"
target triple = "x86_64-pc-linux-gnu"

@_ZN6icu_7720RBBISymbolTableEntryD1Ev = unnamed_addr alias void (ptr), ptr @_ZN6icu_7720RBBISymbolTableEntryD2Ev

; Function Attrs: mustprogress nounwind uwtable
define internal void @_ZL28RBBISymbolTableEntry_deleterPv(ptr noundef %0) #0 {
  %2 = alloca ptr, align 8
  %3 = alloca ptr, align 8
  store ptr %0, ptr %2, align 8, !tbaa !22
  call void @llvm.lifetime.start.p0(i64 8, ptr %3) #10
  %4 = load ptr, ptr %2, align 8, !tbaa !22
  store ptr %4, ptr %3, align 8, !tbaa !43
  %5 = load ptr, ptr %3, align 8, !tbaa !43
  %6 = icmp eq ptr %5, null
  br i1 %6, label %8, label %7

7:                                                ; preds = %1
  call void @_ZN6icu_7720RBBISymbolTableEntryD1Ev(ptr noundef nonnull align 8 dereferenceable(80) %5) #10
  call void @_ZN6icu_777UMemorydlEPv(ptr noundef %5) #10
  br label %8

8:                                                ; preds = %7, %1
  call void @llvm.lifetime.end.p0(i64 8, ptr %3) #10
  ret void
}