; Function Attrs: mustprogress nounwind uwtable
define internal void @_ZL28RBBISymbolTableEntry_deleterPv(ptr noundef %0) #0 {
  %2 = icmp eq ptr %0, null
  br i1 %2, label %4, label %3

3:                                                ; preds = %1
  tail call void @_ZN6icu_7720RBBISymbolTableEntryD1Ev(ptr noundef nonnull align 8 dereferenceable(80) %0) #13
  tail call void @_ZN6icu_777UMemorydlEPv(ptr noundef nonnull %0) #13
  br label %4

4:                                                ; preds = %3, %1
  ret void
}